target datalayout = "e-m:e-p270:32:32-p271:32:32-p272:64:64-i64:64-i128:128-f80:128-n8:16:32:64-S128"
target triple = "x86_64-pc-linux-gnu"

%"class.pxrInternal_v0_24__pxrReserved__::TsKeyFrame" = type { %"class.pxrInternal_v0_24__pxrReserved__::Ts_PolymorphicDataHolder" }
%"class.pxrInternal_v0_24__pxrReserved__::Ts_PolymorphicDataHolder" = type { %"union.std::aligned_storage<72, 8>::type" }
%"union.std::aligned_storage<72, 8>::type" = type { [72 x i8] }
%"class.pxrInternal_v0_24__pxrReserved__::GfInterval" = type { %"struct.pxrInternal_v0_24__pxrReserved__::GfInterval::_Bound", %"struct.pxrInternal_v0_24__pxrReserved__::GfInterval::_Bound" }
%"struct.pxrInternal_v0_24__pxrReserved__::GfInterval::_Bound" = type <{ double, i8, [7 x i8] }>

; Function Attrs: mustprogress nounwind uwtable
define linkonce_odr noundef double @_ZN32pxrInternal_v0_24__pxrReserved__5GfMaxIdEET_S1_S1_(double noundef %0, double noundef %1) #5 comdat {
  %3 = alloca double, align 8
  %4 = alloca double, align 8
  store double %0, ptr %3, align 8
  store double %1, ptr %4, align 8
  %5 = load double, ptr %3, align 8
  %6 = load double, ptr %4, align 8
  %7 = fcmp olt double %5, %6
  br i1 %7, label %8, label %10

8:                                                ; preds = %2
  %9 = load double, ptr %4, align 8
  br label %12

10:                                               ; preds = %2
  %11 = load double, ptr %3, align 8
  br label %12

12:                                               ; preds = %10, %8
  %13 = phi double [ %9, %8 ], [ %11, %10 ]
  ret double %13
}

; Function Attrs: mustprogress uwtable
define internal void @_ZN32pxrInternal_v0_24__pxrReserved__L21_SetLeftTangentLengthEPNS_10TsKeyFrameEd(ptr noundef %0, double noundef %1) #4 {
  %3 = alloca ptr, align 8
  %4 = alloca double, align 8
  store ptr %0, ptr %3, align 8
  store double %1, ptr %4, align 8
  %5 = load ptr, ptr %3, align 8
  %6 = icmp ne ptr %5, null
  br i1 %6, label %8, label %7

7:                                                ; preds = %2
  br label %15

8:                                                ; preds = %2
  %9 = load ptr, ptr %3, align 8
  %10 = call noundef zeroext i1 @_ZNK32pxrInternal_v0_24__pxrReserved__10TsKeyFrame16SupportsTangentsEv(ptr noundef nonnull align 8 dereferenceable(72) %9)
  br i1 %10, label %12, label %11

11:                                               ; preds = %8
  br label %15

12:                                               ; preds = %8
  %13 = load ptr, ptr %3, align 8
  %14 = load double, ptr %4, align 8
  call void @_ZN32pxrInternal_v0_24__pxrReserved__10TsKeyFrame20SetLeftTangentLengthEd(ptr noundef nonnull align 8 dereferenceable(72) %13, double noundef %14)
  br label %15

15:                                               ; preds = %12, %11, %7
  ret void
}

; Function Attrs: mustprogress uwtable
define internal void @_ZN32pxrInternal_v0_24__pxrReserved__L22_SetRightTangentLengthEPNS_10TsKeyFrameEd(ptr noundef %0, double noundef %1) #4 {
  %3 = alloca ptr, align 8
  %4 = alloca double, align 8
  store ptr %0, ptr %3, align 8
  store double %1, ptr %4, align 8
  %5 = load ptr, ptr %3, align 8
  %6 = icmp ne ptr %5, null
  br i1 %6, label %8, label %7

7:                                                ; preds = %2
  br label %15

8:                                                ; preds = %2
  %9 = load ptr, ptr %3, align 8
  %10 = call noundef zeroext i1 @_ZNK32pxrInternal_v0_24__pxrReserved__10TsKeyFrame16SupportsTangentsEv(ptr noundef nonnull align 8 dereferenceable(72) %9)
  br i1 %10, label %12, label %11

11:                                               ; preds = %8
  br label %15

12:                                               ; preds = %8
  %13 = load ptr, ptr %3, align 8
  %14 = load double, ptr %4, align 8
  call void @_ZN32pxrInternal_v0_24__pxrReserved__10TsKeyFrame21SetRightTangentLengthEd(ptr noundef nonnull align 8 dereferenceable(72) %13, double noundef %14)
  br label %15

15:                                               ; preds = %12, %11, %7
  ret void
}

; Function Attrs: mustprogress uwtable
define linkonce_odr noundef double @_ZNK32pxrInternal_v0_24__pxrReserved__10GfInterval7GetSizeEv(ptr noundef nonnull align 8 dereferenceable(32) %0) #4 comdat align 2 {
  %2 = alloca ptr, align 8
  store ptr %0, ptr %2, align 8
  %3 = load ptr, ptr %2, align 8
  %4 = getelementptr inbounds nuw %"class.pxrInternal_v0_24__pxrReserved__::GfInterval", ptr %3, i32 0, i32 1
  %5 = getelementptr inbounds nuw %"struct.pxrInternal_v0_24__pxrReserved__::GfInterval::_Bound", ptr %4, i32 0, i32 0
  %6 = load double, ptr %5, align 8
  %7 = getelementptr inbounds nuw %"class.pxrInternal_v0_24__pxrReserved__::GfInterval", ptr %3, i32 0, i32 0
  %8 = getelementptr inbounds nuw %"struct.pxrInternal_v0_24__pxrReserved__::GfInterval::_Bound", ptr %7, i32 0, i32 0
  %9 = load double, ptr %8, align 8
  %10 = fsub double %6, %9
  %11 = call noundef double @_ZN32pxrInternal_v0_24__pxrReserved__5GfMaxIdEET_S1_S1_(double noundef 0.000000e+00, double noundef %10)
  ret double %11
}

; Function Attrs: mustprogress uwtable
define internal noundef double @_ZN32pxrInternal_v0_24__pxrReserved__L22_ComputeErrorForLengthEbdRKNS_10TsKeyFrameEPNS_8TsSplineERKNS_10GfIntervalERKSt6vectorIdSaIdEES7_(i1 noundef zeroext %0, double noundef %1, ptr noundef nonnull align 8 dereferenceable(72) %2, ptr noundef %3, ptr noundef nonnull align 8 dereferenceable(32) %4, ptr noundef nonnull align 8 dereferenceable(24) %5, ptr noundef nonnull align 8 dereferenceable(32) %6) #4 personality ptr @__gxx_personality_v0 {
  %8 = alloca i8, align 1
  %9 = alloca double, align 8
  %10 = alloca ptr, align 8
  %11 = alloca ptr, align 8
  %12 = alloca ptr, align 8
  %13 = alloca ptr, align 8
  %14 = alloca ptr, align 8
  %15 = alloca %"class.pxrInternal_v0_24__pxrReserved__::TsKeyFrame", align 8
  %16 = alloca double, align 8
  %17 = alloca ptr, align 8
  %18 = alloca i32, align 4
  %19 = alloca %"class.pxrInternal_v0_24__pxrReserved__::TsKeyFrame", align 8
  %20 = zext i1 %0 to i8
  store i8 %20, ptr %8, align 1
  store double %1, ptr %9, align 8
  store ptr %2, ptr %10, align 8
  store ptr %3, ptr %11, align 8
  store ptr %4, ptr %12, align 8
  store ptr %5, ptr %13, align 8
  store ptr %6, ptr %14, align 8
  %21 = load ptr, ptr %10, align 8
  call void @_ZN32pxrInternal_v0_24__pxrReserved__10TsKeyFrameC1ERKS0_(ptr noundef nonnull align 8 dereferenceable(72) %15, ptr noundef nonnull align 8 dereferenceable(72) %21)
  %22 = load ptr, ptr %12, align 8
  %23 = invoke noundef double @_ZNK32pxrInternal_v0_24__pxrReserved__10GfInterval7GetSizeEv(ptr noundef nonnull align 8 dereferenceable(32) %22)
          to label %24 unwind label %32

24:                                               ; preds = %7
  store double %23, ptr %16, align 8
  %25 = load i8, ptr %8, align 1
  %26 = trunc i8 %25 to i1
  br i1 %26, label %27, label %36

27:                                               ; preds = %24
  %28 = load double, ptr %9, align 8
  %29 = load double, ptr %16, align 8
  %30 = fmul double %28, %29
  invoke void @_ZN32pxrInternal_v0_24__pxrReserved__L22_SetRightTangentLengthEPNS_10TsKeyFrameEd(ptr noundef %15, double noundef %30)
          to label %31 unwind label %32

31:                                               ; preds = %27
  br label %41

32:                                               ; preds = %44, %41, %36, %27, %7
  %33 = landingpad { ptr, i32 }
          cleanup
  %34 = extractvalue { ptr, i32 } %33, 0
  store ptr %34, ptr %17, align 8
  %35 = extractvalue { ptr, i32 } %33, 1
  store i32 %35, ptr %18, align 4
  br label %55

36:                                               ; preds = %24
  %37 = load double, ptr %9, align 8
  %38 = load double, ptr %16, align 8
  %39 = fmul double %37, %38
  invoke void @_ZN32pxrInternal_v0_24__pxrReserved__L21_SetLeftTangentLengthEPNS_10TsKeyFrameEd(ptr noundef %15, double noundef %39)
          to label %40 unwind label %32

40:                                               ; preds = %36
  br label %41

41:                                               ; preds = %40, %31
  %42 = load ptr, ptr %11, align 8
  invoke void @_ZN32pxrInternal_v0_24__pxrReserved__10TsKeyFrameC1ERKS0_(ptr noundef nonnull align 8 dereferenceable(72) %19, ptr noundef nonnull align 8 dereferenceable(72) %15)
          to label %43 unwind label %32

43:                                               ; preds = %41
  invoke void @_ZN32pxrInternal_v0_24__pxrReserved__8TsSpline11SetKeyFrameENS_10TsKeyFrameEPNS_10GfIntervalE(ptr noundef nonnull align 8 dereferenceable(16) %42, ptr noundef %19, ptr noundef null)
          to label %44 unwind label %51

44:                                               ; preds = %43
  call void @_ZN32pxrInternal_v0_24__pxrReserved__10TsKeyFrameD1Ev(ptr noundef nonnull align 8 dereferenceable(72) %19) #3
  %45 = load ptr, ptr %11, align 8
  %46 = load ptr, ptr %12, align 8
  %47 = load ptr, ptr %13, align 8
  %48 = load ptr, ptr %14, align 8
  %49 = invoke noundef double @_ZN32pxrInternal_v0_24__pxrReserved__L13_ComputeErrorERKNS_8TsSplineERKNS_10GfIntervalERKSt6vectorIdSaIdEES5_b(ptr noundef nonnull align 8 dereferenceable(16) %45, ptr noundef nonnull align 8 dereferenceable(32) %46, ptr noundef nonnull align 8 dereferenceable(24) %47, ptr noundef nonnull align 8 dereferenceable(32) %48, i1 noundef zeroext false)
          to label %50 unwind label %32

50:                                               ; preds = %44
  call void @_ZN32pxrInternal_v0_24__pxrReserved__10TsKeyFrameD1Ev(ptr noundef nonnull align 8 dereferenceable(72) %15) #3
  ret double %49

51:                                               ; preds = %43
  %52 = landingpad { ptr, i32 }
          cleanup
  %53 = extractvalue { ptr, i32 } %52, 0
  store ptr %53, ptr %17, align 8
  %54 = extractvalue { ptr, i32 } %52, 1
  store i32 %54, ptr %18, align 4
  call void @_ZN32pxrInternal_v0_24__pxrReserved__10TsKeyFrameD1Ev(ptr noundef nonnull align 8 dereferenceable(72) %19) #3
  br label %55

55:                                               ; preds = %51, %32
  call void @_ZN32pxrInternal_v0_24__pxrReserved__10TsKeyFrameD1Ev(ptr noundef nonnull align 8 dereferenceable(72) %15) #3
  br label %56

56:                                               ; preds = %55
  %57 = load ptr, ptr %17, align 8
  %58 = load i32, ptr %18, align 4
  %59 = insertvalue { ptr, i32 } poison, ptr %57, 0
  %60 = insertvalue { ptr, i32 } %59, i32 %58, 1
  resume { ptr, i32 } %60
}