; Function Attrs: mustprogress uwtable
define internal fastcc noundef double @_ZN32pxrInternal_v0_24__pxrReserved__L22_ComputeErrorForLengthEbdRKNS_10TsKeyFrameEPNS_8TsSplineERKNS_10GfIntervalERKSt6vectorIdSaIdEES7_(i1 noundef zeroext %0, double noundef %1, ptr noundef nonnull align 8 dereferenceable(72) %2, ptr noundef %3, ptr noundef nonnull readonly align 8 captures(none) dereferenceable(32) %4, ptr noundef nonnull readonly align 8 captures(none) dereferenceable(24) %5, ptr noundef nonnull readonly align 8 captures(none) dereferenceable(32) %6) unnamed_addr #3 personality ptr @__gxx_personality_v0 {
  %8 = alloca %"class.pxrInternal_v0_24__pxrReserved__::TsKeyFrame", align 8
  %9 = alloca %"class.pxrInternal_v0_24__pxrReserved__::TsKeyFrame", align 8
  call void @_ZN32pxrInternal_v0_24__pxrReserved__10TsKeyFrameC1ERKS0_(ptr noundef nonnull align 8 dereferenceable(72) %8, ptr noundef nonnull align 8 dereferenceable(72) %2)
  %10 = getelementptr inbounds nuw i8, ptr %4, i64 16
  %11 = load double, ptr %10, align 8
  %12 = load double, ptr %4, align 8
  %13 = fsub double %11, %12
  %14 = fcmp ogt double %13, 0.000000e+00
  %15 = select i1 %14, double %13, double 0.000000e+00
  %16 = fmul double %1, %15
  br i1 %0, label %17, label %22

17:                                               ; preds = %7
  %18 = invoke noundef zeroext i1 @_ZNK32pxrInternal_v0_24__pxrReserved__10TsKeyFrame16SupportsTangentsEv(ptr noundef nonnull align 8 dereferenceable(72) %8)
          to label %.noexc unwind label %20

.noexc:                                           ; preds = %17
  br i1 %18, label %19, label %_ZN32pxrInternal_v0_24__pxrReserved__L22_SetRightTangentLengthEPNS_10TsKeyFrameEd.exit

19:                                               ; preds = %.noexc
  invoke void @_ZN32pxrInternal_v0_24__pxrReserved__10TsKeyFrame21SetRightTangentLengthEd(ptr noundef nonnull align 8 dereferenceable(72) %8, double noundef %16)
          to label %_ZN32pxrInternal_v0_24__pxrReserved__L22_SetRightTangentLengthEPNS_10TsKeyFrameEd.exit unwind label %20

20:                                               ; preds = %24, %22, %19, %17, %26, %_ZN32pxrInternal_v0_24__pxrReserved__L22_SetRightTangentLengthEPNS_10TsKeyFrameEd.exit
  %21 = landingpad { ptr, i32 }
          cleanup
  br label %31

22:                                               ; preds = %7
  %23 = invoke noundef zeroext i1 @_ZNK32pxrInternal_v0_24__pxrReserved__10TsKeyFrame16SupportsTangentsEv(ptr noundef nonnull align 8 dereferenceable(72) %8)
          to label %.noexc16 unwind label %20

.noexc16:                                         ; preds = %22
  br i1 %23, label %24, label %_ZN32pxrInternal_v0_24__pxrReserved__L22_SetRightTangentLengthEPNS_10TsKeyFrameEd.exit

24:                                               ; preds = %.noexc16
  invoke void @_ZN32pxrInternal_v0_24__pxrReserved__10TsKeyFrame20SetLeftTangentLengthEd(ptr noundef nonnull align 8 dereferenceable(72) %8, double noundef %16)
          to label %_ZN32pxrInternal_v0_24__pxrReserved__L22_SetRightTangentLengthEPNS_10TsKeyFrameEd.exit unwind label %20

_ZN32pxrInternal_v0_24__pxrReserved__L22_SetRightTangentLengthEPNS_10TsKeyFrameEd.exit: ; preds = %.noexc16, %24, %.noexc, %19
  invoke void @_ZN32pxrInternal_v0_24__pxrReserved__10TsKeyFrameC1ERKS0_(ptr noundef nonnull align 8 dereferenceable(72) %9, ptr noundef nonnull align 8 dereferenceable(72) %8)
          to label %25 unwind label %20

25:                                               ; preds = %_ZN32pxrInternal_v0_24__pxrReserved__L22_SetRightTangentLengthEPNS_10TsKeyFrameEd.exit
  invoke void @_ZN32pxrInternal_v0_24__pxrReserved__8TsSpline11SetKeyFrameENS_10TsKeyFrameEPNS_10GfIntervalE(ptr noundef nonnull align 8 dereferenceable(16) %3, ptr noundef nonnull %9, ptr noundef null)
          to label %26 unwind label %29

26:                                               ; preds = %25
  call void @_ZN32pxrInternal_v0_24__pxrReserved__10TsKeyFrameD1Ev(ptr noundef nonnull align 8 dereferenceable(72) %9) #24
  %27 = invoke fastcc noundef double @_ZN32pxrInternal_v0_24__pxrReserved__L13_ComputeErrorERKNS_8TsSplineERKNS_10GfIntervalERKSt6vectorIdSaIdEES5_b(ptr noundef nonnull align 8 dereferenceable(16) %3, ptr noundef nonnull align 8 dereferenceable(32) %4, ptr noundef nonnull align 8 dereferenceable(24) %5, ptr noundef nonnull align 8 dereferenceable(32) %6, i1 noundef zeroext false)
          to label %28 unwind label %20

28:                                               ; preds = %26
  call void @_ZN32pxrInternal_v0_24__pxrReserved__10TsKeyFrameD1Ev(ptr noundef nonnull align 8 dereferenceable(72) %8) #24
  ret double %27

29:                                               ; preds = %25
  %30 = landingpad { ptr, i32 }
          cleanup
  call void @_ZN32pxrInternal_v0_24__pxrReserved__10TsKeyFrameD1Ev(ptr noundef nonnull align 8 dereferenceable(72) %9) #24
  br label %31

31:                                               ; preds = %29, %20
  %.pn = phi { ptr, i32 } [ %21, %20 ], [ %30, %29 ]
  call void @_ZN32pxrInternal_v0_24__pxrReserved__10TsKeyFrameD1Ev(ptr noundef nonnull align 8 dereferenceable(72) %8) #24
  resume { ptr, i32 } %.pn
}